target datalayout = "e-m:e-p270:32:32-p271:32:32-p272:64:64-i64:64-i128:128-f80:128-n8:16:32:64-S128"
target triple = "x86_64-pc-linux-gnu"

%struct.xdot_polyline = type { i64, ptr }
%struct.xdot_point = type { double, double, double }

@stderr = external global ptr, align 8
@.str.2 = private unnamed_addr constant [58 x i8] c"integer overflow when trying to allocate %zu * %zu bytes\0A\00", align 1
@.str.3 = private unnamed_addr constant [49 x i8] c"out of memory when trying to allocate %zu bytes\0A\00", align 1

; Function Attrs: inlinehint nounwind uwtable
define internal ptr @gv_calloc(i64 noundef %0, i64 noundef %1) #2 {
  %3 = alloca i64, align 8
  %4 = alloca i64, align 8
  %5 = alloca ptr, align 8
  store i64 %0, ptr %3, align 8, !tbaa !9
  store i64 %1, ptr %4, align 8, !tbaa !9
  %6 = load i64, ptr %3, align 8, !tbaa !9
  %7 = icmp ugt i64 %6, 0
  br i1 %7, label %8, label %18

8:                                                ; preds = %2
  %9 = load i64, ptr %3, align 8, !tbaa !9
  %10 = udiv i64 -1, %9
  %11 = load i64, ptr %4, align 8, !tbaa !9
  %12 = icmp ult i64 %10, %11
  br i1 %12, label %13, label %18

13:                                               ; preds = %8
  %14 = load ptr, ptr @stderr, align 8, !tbaa !23
  %15 = load i64, ptr %3, align 8, !tbaa !9
  %16 = load i64, ptr %4, align 8, !tbaa !9
  %17 = call i32 (ptr, ptr, ...) @fprintf(ptr noundef %14, ptr noundef @.str.2, i64 noundef %15, i64 noundef %16) #13
  call void @graphviz_exit(i32 noundef 1) #14
  unreachable

18:                                               ; preds = %8, %2
  call void @llvm.lifetime.start.p0(i64 8, ptr %5) #13
  %19 = load i64, ptr %3, align 8, !tbaa !9
  %20 = load i64, ptr %4, align 8, !tbaa !9
  %21 = call noalias ptr @calloc(i64 noundef %19, i64 noundef %20) #15
  store ptr %21, ptr %5, align 8, !tbaa !8
  %22 = load i64, ptr %3, align 8, !tbaa !9
  %23 = icmp ugt i64 %22, 0
  br i1 %23, label %24, label %36

24:                                               ; preds = %18
  %25 = load i64, ptr %4, align 8, !tbaa !9
  %26 = icmp ugt i64 %25, 0
  br i1 %26, label %27, label %36

27:                                               ; preds = %24
  %28 = load ptr, ptr %5, align 8, !tbaa !8
  %29 = icmp eq ptr %28, null
  br i1 %29, label %30, label %36

30:                                               ; preds = %27
  %31 = load ptr, ptr @stderr, align 8, !tbaa !23
  %32 = load i64, ptr %3, align 8, !tbaa !9
  %33 = load i64, ptr %4, align 8, !tbaa !9
  %34 = mul i64 %32, %33
  %35 = call i32 (ptr, ptr, ...) @fprintf(ptr noundef %31, ptr noundef @.str.3, i64 noundef %34) #13
  call void @graphviz_exit(i32 noundef 1) #14
  unreachable

36:                                               ; preds = %27, %24, %18
  %37 = load ptr, ptr %5, align 8, !tbaa !8
  call void @llvm.lifetime.end.p0(i64 8, ptr %5) #13
  ret ptr %37
}

; Function Attrs: nounwind uwtable
define internal ptr @parseUInt(ptr noundef %0, ptr noundef %1) #0 {
  %3 = alloca ptr, align 8
  %4 = alloca ptr, align 8
  %5 = alloca ptr, align 8
  %6 = alloca ptr, align 8
  %7 = alloca i32, align 4
  store ptr %0, ptr %4, align 8, !tbaa !3
  store ptr %1, ptr %5, align 8, !tbaa !26
  call void @llvm.lifetime.start.p0(i64 8, ptr %6) #13
  %8 = load ptr, ptr %4, align 8, !tbaa !3
  %9 = call i64 @strtoul(ptr noundef %8, ptr noundef %6, i32 noundef 10) #13
  %10 = trunc i64 %9 to i32
  %11 = load ptr, ptr %5, align 8, !tbaa !26
  store i32 %10, ptr %11, align 4, !tbaa !18
  %12 = load ptr, ptr %4, align 8, !tbaa !3
  %13 = load ptr, ptr %6, align 8, !tbaa !3
  %14 = icmp eq ptr %12, %13
  br i1 %14, label %15, label %16

15:                                               ; preds = %2
  store ptr null, ptr %3, align 8
  store i32 1, ptr %7, align 4
  br label %18

16:                                               ; preds = %2
  %17 = load ptr, ptr %6, align 8, !tbaa !3
  store ptr %17, ptr %3, align 8
  store i32 1, ptr %7, align 4
  br label %18

18:                                               ; preds = %16, %15
  call void @llvm.lifetime.end.p0(i64 8, ptr %6) #13
  %19 = load ptr, ptr %3, align 8
  ret ptr %19
}

; Function Attrs: nounwind uwtable
define internal ptr @parsePolyline(ptr noundef %0, ptr noundef %1) #0 {
  %3 = alloca ptr, align 8
  %4 = alloca ptr, align 8
  %5 = alloca ptr, align 8
  %6 = alloca i32, align 4
  %7 = alloca ptr, align 8
  %8 = alloca ptr, align 8
  %9 = alloca ptr, align 8
  %10 = alloca i32, align 4
  store ptr %0, ptr %4, align 8, !tbaa !3
  store ptr %1, ptr %5, align 8, !tbaa !8
  call void @llvm.lifetime.start.p0(i64 4, ptr %6) #13
  call void @llvm.lifetime.start.p0(i64 8, ptr %7) #13
  call void @llvm.lifetime.start.p0(i64 8, ptr %8) #13
  call void @llvm.lifetime.start.p0(i64 8, ptr %9) #13
  %11 = load ptr, ptr %4, align 8, !tbaa !3
  %12 = call ptr @parseUInt(ptr noundef %11, ptr noundef %6)
  store ptr %12, ptr %4, align 8, !tbaa !3
  %13 = load ptr, ptr %4, align 8, !tbaa !3
  %14 = icmp ne ptr %13, null
  br i1 %14, label %16, label %15

15:                                               ; preds = %2
  store ptr null, ptr %3, align 8
  store i32 1, ptr %10, align 4
  br label %68

16:                                               ; preds = %2
  %17 = load i32, ptr %6, align 4, !tbaa !18
  %18 = zext i32 %17 to i64
  %19 = call ptr @gv_calloc(i64 noundef %18, i64 noundef 24)
  store ptr %19, ptr %8, align 8, !tbaa !8
  store ptr %19, ptr %7, align 8, !tbaa !8
  %20 = load i32, ptr %6, align 4, !tbaa !18
  %21 = zext i32 %20 to i64
  %22 = load ptr, ptr %5, align 8, !tbaa !8
  %23 = getelementptr inbounds nuw %struct.xdot_polyline, ptr %22, i32 0, i32 0
  store i64 %21, ptr %23, align 8, !tbaa !70
  store i32 0, ptr %6, align 4, !tbaa !18
  br label %24

24:                                               ; preds = %60, %16
  %25 = load i32, ptr %6, align 4, !tbaa !18
  %26 = zext i32 %25 to i64
  %27 = load ptr, ptr %5, align 8, !tbaa !8
  %28 = getelementptr inbounds nuw %struct.xdot_polyline, ptr %27, i32 0, i32 0
  %29 = load i64, ptr %28, align 8, !tbaa !70
  %30 = icmp ult i64 %26, %29
  br i1 %30, label %31, label %63

31:                                               ; preds = %24
  %32 = load ptr, ptr %4, align 8, !tbaa !3
  %33 = call double @strtod(ptr noundef %32, ptr noundef %9) #13
  %34 = load ptr, ptr %8, align 8, !tbaa !8
  %35 = getelementptr inbounds nuw %struct.xdot_point, ptr %34, i32 0, i32 0
  store double %33, ptr %35, align 8, !tbaa !72
  %36 = load ptr, ptr %4, align 8, !tbaa !3
  %37 = load ptr, ptr %9, align 8, !tbaa !3
  %38 = icmp eq ptr %36, %37
  br i1 %38, label %39, label %41

39:                                               ; preds = %31
  %40 = load ptr, ptr %7, align 8, !tbaa !8
  call void @free(ptr noundef %40) #13
  store ptr null, ptr %3, align 8
  store i32 1, ptr %10, align 4
  br label %68

41:                                               ; preds = %31
  %42 = load ptr, ptr %9, align 8, !tbaa !3
  store ptr %42, ptr %4, align 8, !tbaa !3
  br label %43

43:                                               ; preds = %41
  %44 = load ptr, ptr %4, align 8, !tbaa !3
  %45 = call double @strtod(ptr noundef %44, ptr noundef %9) #13
  %46 = load ptr, ptr %8, align 8, !tbaa !8
  %47 = getelementptr inbounds nuw %struct.xdot_point, ptr %46, i32 0, i32 1
  store double %45, ptr %47, align 8, !tbaa !74
  %48 = load ptr, ptr %4, align 8, !tbaa !3
  %49 = load ptr, ptr %9, align 8, !tbaa !3
  %50 = icmp eq ptr %48, %49
  br i1 %50, label %51, label %53

51:                                               ; preds = %43
  %52 = load ptr, ptr %7, align 8, !tbaa !8
  call void @free(ptr noundef %52) #13
  store ptr null, ptr %3, align 8
  store i32 1, ptr %10, align 4
  br label %68

53:                                               ; preds = %43
  %54 = load ptr, ptr %9, align 8, !tbaa !3
  store ptr %54, ptr %4, align 8, !tbaa !3
  br label %55

55:                                               ; preds = %53
  %56 = load ptr, ptr %8, align 8, !tbaa !8
  %57 = getelementptr inbounds nuw %struct.xdot_point, ptr %56, i32 0, i32 2
  store double 0.000000e+00, ptr %57, align 8, !tbaa !75
  %58 = load ptr, ptr %8, align 8, !tbaa !8
  %59 = getelementptr inbounds nuw %struct.xdot_point, ptr %58, i32 1
  store ptr %59, ptr %8, align 8, !tbaa !8
  br label %60

60:                                               ; preds = %55
  %61 = load i32, ptr %6, align 4, !tbaa !18
  %62 = add i32 %61, 1
  store i32 %62, ptr %6, align 4, !tbaa !18
  br label %24, !llvm.loop !76

63:                                               ; preds = %24
  %64 = load ptr, ptr %7, align 8, !tbaa !8
  %65 = load ptr, ptr %5, align 8, !tbaa !8
  %66 = getelementptr inbounds nuw %struct.xdot_polyline, ptr %65, i32 0, i32 1
  store ptr %64, ptr %66, align 8, !tbaa !77
  %67 = load ptr, ptr %4, align 8, !tbaa !3
  store ptr %67, ptr %3, align 8
  store i32 1, ptr %10, align 4
  br label %68

68:                                               ; preds = %63, %51, %39, %15
  call void @llvm.lifetime.end.p0(i64 8, ptr %9) #13
  call void @llvm.lifetime.end.p0(i64 8, ptr %8) #13
  call void @llvm.lifetime.end.p0(i64 8, ptr %7) #13
  call void @llvm.lifetime.end.p0(i64 4, ptr %6) #13
  %69 = load ptr, ptr %3, align 8
  ret ptr %69
}