; Function Attrs: nounwind uwtable
define internal fastcc ptr @parsePolyline(ptr noundef nonnull %0, ptr noundef nonnull captures(none) %1) unnamed_addr #0 {
  %3 = alloca ptr, align 8
  %4 = alloca ptr, align 8
  call void @llvm.lifetime.start.p0(i64 8, ptr nonnull %4) #20
  call void @llvm.lifetime.start.p0(i64 8, ptr nonnull %3) #20
  %5 = call i64 @strtoul(ptr noundef nonnull %0, ptr noundef nonnull %3, i32 noundef 10) #20
  %6 = load ptr, ptr %3, align 8, !tbaa !23
  %7 = icmp eq ptr %0, %6
  call void @llvm.lifetime.end.p0(i64 8, ptr nonnull %3) #20
  %.not27 = icmp eq ptr %6, null
  %.not = or i1 %7, %.not27
  br i1 %.not, label %37, label %8

8:                                                ; preds = %2
  %9 = and i64 %5, 4294967295
  %.not28 = icmp eq i64 %9, 0
  br i1 %.not28, label %gv_calloc.exit.thread, label %11

gv_calloc.exit.thread:                            ; preds = %8
  %10 = tail call noalias ptr @calloc(i64 noundef 0, i64 noundef 24) #21
  store i64 %9, ptr %1, align 8, !tbaa !40
  br label %._crit_edge

11:                                               ; preds = %8
  %12 = tail call noalias ptr @calloc(i64 noundef %9, i64 noundef 24) #21
  %13 = icmp eq ptr %12, null
  br i1 %13, label %14, label %.lr.ph.preheader

14:                                               ; preds = %11
  %15 = load ptr, ptr @stderr, align 8, !tbaa !3
  %16 = mul nuw nsw i64 %9, 24
  %17 = tail call i32 (ptr, ptr, ...) @fprintf(ptr noundef %15, ptr noundef nonnull @.str.3, i64 noundef %16) #22
  tail call fastcc void @graphviz_exit() #23
  unreachable

.lr.ph.preheader:                                 ; preds = %11
  store i64 %9, ptr %1, align 8, !tbaa !40
  br label %.lr.ph

.lr.ph:                                           ; preds = %.lr.ph.preheader, %28
  %.033 = phi ptr [ %30, %28 ], [ %12, %.lr.ph.preheader ]
  %.01932 = phi ptr [ %25, %28 ], [ %6, %.lr.ph.preheader ]
  %storemerge31 = phi i32 [ %31, %28 ], [ 0, %.lr.ph.preheader ]
  %18 = call double @strtod(ptr noundef %.01932, ptr noundef nonnull %4) #20
  store double %18, ptr %.033, align 8, !tbaa !43
  %19 = load ptr, ptr %4, align 8, !tbaa !23
  %20 = icmp eq ptr %.01932, %19
  br i1 %20, label %21, label %22

21:                                               ; preds = %.lr.ph
  tail call void @free(ptr noundef %12) #20
  br label %37

22:                                               ; preds = %.lr.ph
  %23 = call double @strtod(ptr noundef %19, ptr noundef nonnull %4) #20
  %24 = getelementptr inbounds nuw i8, ptr %.033, i64 8
  store double %23, ptr %24, align 8, !tbaa !45
  %25 = load ptr, ptr %4, align 8, !tbaa !23
  %26 = icmp eq ptr %19, %25
  br i1 %26, label %27, label %28

27:                                               ; preds = %22
  tail call void @free(ptr noundef %12) #20
  br label %37

28:                                               ; preds = %22
  %29 = getelementptr inbounds nuw i8, ptr %.033, i64 16
  store double 0.000000e+00, ptr %29, align 8, !tbaa !76
  %30 = getelementptr inbounds nuw i8, ptr %.033, i64 24
  %31 = add i32 %storemerge31, 1
  %32 = zext i32 %31 to i64
  %33 = load i64, ptr %1, align 8, !tbaa !40
  %34 = icmp ugt i64 %33, %32
  br i1 %34, label %.lr.ph, label %._crit_edge, !llvm.loop !77

._crit_edge:                                      ; preds = %28, %gv_calloc.exit.thread
  %35 = phi ptr [ %10, %gv_calloc.exit.thread ], [ %12, %28 ]
  %.019.lcssa = phi ptr [ %6, %gv_calloc.exit.thread ], [ %25, %28 ]
  %36 = getelementptr inbounds nuw i8, ptr %1, i64 8
  store ptr %35, ptr %36, align 8, !tbaa !42
  br label %37

37:                                               ; preds = %2, %._crit_edge, %27, %21
  %.018 = phi ptr [ null, %21 ], [ null, %27 ], [ %.019.lcssa, %._crit_edge ], [ null, %2 ]
  call void @llvm.lifetime.end.p0(i64 8, ptr nonnull %4) #20
  ret ptr %.018
}